target datalayout = "e-m:e-p270:32:32-p271:32:32-p272:64:64-i64:64-i128:128-f80:128-n8:16:32:64-S128"
target triple = "x86_64-pc-linux-gnu"

%struct.WebVTTContext = type { ptr, ptr, %struct.AVBPrint, i32, i32, [64 x i8], i32 }
%struct.AVBPrint = type { ptr, i32, i32, i32, [1 x i8], [1000 x i8] }
%struct.ASSStyle = type { ptr, ptr, i32, i32, i32, i32, i32, i32, i32, i32, i32, float, float, float, float, i32, float, float, i32, i32, i32, i32, i32, i32 }

@.str.4 = private unnamed_addr constant [4 x i8] c"<b>\00", align 1
@.str.5 = private unnamed_addr constant [4 x i8] c"<i>\00", align 1
@.str.6 = private unnamed_addr constant [4 x i8] c"<u>\00", align 1

; Function Attrs: nounwind uwtable
define internal i32 @webvtt_stack_push(ptr noundef %0, i8 noundef signext %1) #1 {
  %3 = alloca i32, align 4
  %4 = alloca ptr, align 8
  %5 = alloca i8, align 1
  store ptr %0, ptr %4, align 8, !tbaa !29
  store i8 %1, ptr %5, align 1, !tbaa !64
  %6 = load ptr, ptr %4, align 8, !tbaa !29
  %7 = getelementptr inbounds nuw %struct.WebVTTContext, ptr %6, i32 0, i32 6
  %8 = load i32, ptr %7, align 8, !tbaa !65
  %9 = icmp sge i32 %8, 64
  br i1 %9, label %10, label %11

10:                                               ; preds = %2
  store i32 -1, ptr %3, align 4
  br label %21

11:                                               ; preds = %2
  %12 = load i8, ptr %5, align 1, !tbaa !64
  %13 = load ptr, ptr %4, align 8, !tbaa !29
  %14 = getelementptr inbounds nuw %struct.WebVTTContext, ptr %13, i32 0, i32 5
  %15 = load ptr, ptr %4, align 8, !tbaa !29
  %16 = getelementptr inbounds nuw %struct.WebVTTContext, ptr %15, i32 0, i32 6
  %17 = load i32, ptr %16, align 8, !tbaa !65
  %18 = add nsw i32 %17, 1
  store i32 %18, ptr %16, align 8, !tbaa !65
  %19 = sext i32 %17 to i64
  %20 = getelementptr inbounds [64 x i8], ptr %14, i64 0, i64 %19
  store i8 %12, ptr %20, align 1, !tbaa !64
  store i32 0, ptr %3, align 4
  br label %21

21:                                               ; preds = %11, %10
  %22 = load i32, ptr %3, align 4
  ret i32 %22
}

; Function Attrs: nounwind uwtable
define internal void @webvtt_style_apply(ptr noundef %0, ptr noundef %1) #1 {
  %3 = alloca ptr, align 8
  %4 = alloca ptr, align 8
  %5 = alloca ptr, align 8
  store ptr %0, ptr %3, align 8, !tbaa !29
  store ptr %1, ptr %4, align 8, !tbaa !36
  call void @llvm.lifetime.start.p0(i64 8, ptr %5) #6
  %6 = load ptr, ptr %3, align 8, !tbaa !29
  %7 = getelementptr inbounds nuw %struct.WebVTTContext, ptr %6, i32 0, i32 1
  %8 = load ptr, ptr %7, align 8, !tbaa !35
  %9 = load ptr, ptr %4, align 8, !tbaa !36
  %10 = call ptr @ff_ass_style_get(ptr noundef %8, ptr noundef %9)
  store ptr %10, ptr %5, align 8, !tbaa !29
  %11 = load ptr, ptr %5, align 8, !tbaa !29
  %12 = icmp ne ptr %11, null
  br i1 %12, label %13, label %41

13:                                               ; preds = %2
  %14 = load ptr, ptr %5, align 8, !tbaa !29
  %15 = getelementptr inbounds nuw %struct.ASSStyle, ptr %14, i32 0, i32 7
  %16 = load i32, ptr %15, align 4, !tbaa !56
  %17 = icmp ne i32 %16, 0
  br i1 %17, label %18, label %22

18:                                               ; preds = %13
  %19 = load ptr, ptr %3, align 8, !tbaa !29
  call void (ptr, ptr, ...) @webvtt_print(ptr noundef %19, ptr noundef @.str.4)
  %20 = load ptr, ptr %3, align 8, !tbaa !29
  %21 = call i32 @webvtt_stack_push(ptr noundef %20, i8 noundef signext 98)
  br label %22

22:                                               ; preds = %18, %13
  %23 = load ptr, ptr %5, align 8, !tbaa !29
  %24 = getelementptr inbounds nuw %struct.ASSStyle, ptr %23, i32 0, i32 8
  %25 = load i32, ptr %24, align 8, !tbaa !58
  %26 = icmp ne i32 %25, 0
  br i1 %26, label %27, label %31

27:                                               ; preds = %22
  %28 = load ptr, ptr %3, align 8, !tbaa !29
  call void (ptr, ptr, ...) @webvtt_print(ptr noundef %28, ptr noundef @.str.5)
  %29 = load ptr, ptr %3, align 8, !tbaa !29
  %30 = call i32 @webvtt_stack_push(ptr noundef %29, i8 noundef signext 105)
  br label %31

31:                                               ; preds = %27, %22
  %32 = load ptr, ptr %5, align 8, !tbaa !29
  %33 = getelementptr inbounds nuw %struct.ASSStyle, ptr %32, i32 0, i32 9
  %34 = load i32, ptr %33, align 4, !tbaa !59
  %35 = icmp ne i32 %34, 0
  br i1 %35, label %36, label %40

36:                                               ; preds = %31
  %37 = load ptr, ptr %3, align 8, !tbaa !29
  call void (ptr, ptr, ...) @webvtt_print(ptr noundef %37, ptr noundef @.str.6)
  %38 = load ptr, ptr %3, align 8, !tbaa !29
  %39 = call i32 @webvtt_stack_push(ptr noundef %38, i8 noundef signext 117)
  br label %40

40:                                               ; preds = %36, %31
  br label %41

41:                                               ; preds = %40, %2
  call void @llvm.lifetime.end.p0(i64 8, ptr %5) #6
  ret void
}