; Function Attrs: nounwind uwtable
define internal fastcc void @webvtt_style_apply(ptr noundef %0, ptr noundef %1) unnamed_addr #1 {
  %3 = getelementptr inbounds nuw i8, ptr %0, i64 8
  %4 = load ptr, ptr %3, align 8, !tbaa !33
  %5 = tail call ptr @ff_ass_style_get(ptr noundef %4, ptr noundef %1) #6
  %.not = icmp eq ptr %5, null
  br i1 %.not, label %webvtt_stack_push.exit18, label %6

6:                                                ; preds = %2
  %7 = getelementptr inbounds nuw i8, ptr %5, i64 36
  %8 = load i32, ptr %7, align 4, !tbaa !52
  %.not12 = icmp eq i32 %8, 0
  br i1 %.not12, label %webvtt_stack_push.exit, label %9

9:                                                ; preds = %6
  tail call void (ptr, ptr, ...) @webvtt_print(ptr noundef nonnull %0, ptr noundef nonnull @.str.4)
  %10 = getelementptr inbounds nuw i8, ptr %0, i64 1112
  %11 = load i32, ptr %10, align 8, !tbaa !54
  %12 = icmp sgt i32 %11, 63
  br i1 %12, label %webvtt_stack_push.exit, label %13

13:                                               ; preds = %9
  %14 = getelementptr inbounds nuw i8, ptr %0, i64 1048
  %15 = add nsw i32 %11, 1
  store i32 %15, ptr %10, align 8, !tbaa !54
  %16 = sext i32 %11 to i64
  %17 = getelementptr inbounds [64 x i8], ptr %14, i64 0, i64 %16
  store i8 98, ptr %17, align 1, !tbaa !55
  br label %webvtt_stack_push.exit

webvtt_stack_push.exit:                           ; preds = %13, %9, %6
  %18 = getelementptr inbounds nuw i8, ptr %5, i64 40
  %19 = load i32, ptr %18, align 8, !tbaa !56
  %.not13 = icmp eq i32 %19, 0
  br i1 %.not13, label %webvtt_stack_push.exit16, label %20

20:                                               ; preds = %webvtt_stack_push.exit
  tail call void (ptr, ptr, ...) @webvtt_print(ptr noundef nonnull %0, ptr noundef nonnull @.str.5)
  %21 = getelementptr inbounds nuw i8, ptr %0, i64 1112
  %22 = load i32, ptr %21, align 8, !tbaa !54
  %23 = icmp sgt i32 %22, 63
  br i1 %23, label %webvtt_stack_push.exit16, label %24

24:                                               ; preds = %20
  %25 = getelementptr inbounds nuw i8, ptr %0, i64 1048
  %26 = add nsw i32 %22, 1
  store i32 %26, ptr %21, align 8, !tbaa !54
  %27 = sext i32 %22 to i64
  %28 = getelementptr inbounds [64 x i8], ptr %25, i64 0, i64 %27
  store i8 105, ptr %28, align 1, !tbaa !55
  br label %webvtt_stack_push.exit16

webvtt_stack_push.exit16:                         ; preds = %24, %20, %webvtt_stack_push.exit
  %29 = getelementptr inbounds nuw i8, ptr %5, i64 44
  %30 = load i32, ptr %29, align 4, !tbaa !57
  %.not14 = icmp eq i32 %30, 0
  br i1 %.not14, label %webvtt_stack_push.exit18, label %31

31:                                               ; preds = %webvtt_stack_push.exit16
  tail call void (ptr, ptr, ...) @webvtt_print(ptr noundef nonnull %0, ptr noundef nonnull @.str.6)
  %32 = getelementptr inbounds nuw i8, ptr %0, i64 1112
  %33 = load i32, ptr %32, align 8, !tbaa !54
  %34 = icmp sgt i32 %33, 63
  br i1 %34, label %webvtt_stack_push.exit18, label %35

35:                                               ; preds = %31
  %36 = getelementptr inbounds nuw i8, ptr %0, i64 1048
  %37 = add nsw i32 %33, 1
  store i32 %37, ptr %32, align 8, !tbaa !54
  %38 = sext i32 %33 to i64
  %39 = getelementptr inbounds [64 x i8], ptr %36, i64 0, i64 %38
  store i8 117, ptr %39, align 1, !tbaa !55
  br label %webvtt_stack_push.exit18

webvtt_stack_push.exit18:                         ; preds = %35, %31, %webvtt_stack_push.exit16, %2
  ret void
}